(dp0
S'n_iter'
p1
I200
sS'bounds'
p2
(lp3
I0
aF2.0
asS'optimize_params'
p4
(lp5
S'sig_lat'
p6
aS'sig_rf'
p7
aS'sig_IoR'
p8
aS'amp_lat'
p9
aS'amp_rf'
p10
aS'amp_IoR'
p11
aS'amp_noise'
p12
aS'k'
p13
aS'g'
p14
aS'theta'
p15
aS'tau'
p16
asS'popsize'
p17
cnumpy.core.multiarray
scalar
p18
(cnumpy
dtype
p19
(S'f8'
p20
I0
I1
tp21
Rp22
(I3
S'<'
p23
NNNI-1
I-1
I0
tp24
bS'\x00\x00\x00\x00\x00\x00\x1c@'
p25
tp26
Rp27
sS'saccade_params'
p28
ccollections
OrderedDict
p29
((lp30
(lp31
g6
aF0.1
aa(lp32
g7
aF0.267
aa(lp33
g8
aF0.1
aa(lp34
g9
aF0.001
aa(lp35
g10
aF0.008
aa(lp36
g11
aF1.5
aa(lp37
g12
aF0.09
aa(lp38
g13
aF0.017
aa(lp39
g14
aF0.33
aa(lp40
g15
aF6.0
aa(lp41
g16
aF50.0
aatp42
Rp43
sS'sigma0'
p44
F0.2
sS'initial_dyn_params'
p45
cnumpy.core.multiarray
_reconstruct
p46
(cnumpy
ndarray
p47
(I0
tp48
S'b'
p49
tp50
Rp51
(I1
(I11
tp52
g22
I00
S'\x9a\x99\x99\x99\x99\x99\xb9?J\x0c\x02+\x87\x16\xd1?\x9a\x99\x99\x99\x99\x99\xb9?\xfc\xa9\xf1\xd2MbP?\xfc\xa9\xf1\xd2Mb\x80?\x00\x00\x00\x00\x00\x00\xf8?\n\xd7\xa3p=\n\xb7?\x9c\xc4 \xb0rh\x91?\x1f\x85\xebQ\xb8\x1e\xd5?\x00\x00\x00\x00\x00\x00\x18@\x00\x00\x00\x00\x00\x00I@'
p53
tp54
bs.